target datalayout = "e-m:e-p270:32:32-p271:32:32-p272:64:64-i64:64-i128:128-f80:128-n8:16:32:64-S128"
target triple = "x86_64-pc-linux-gnu"

; Function Attrs: nounwind uwtable
define ptr @Acb_PrepareNames(ptr noundef %0) #0 {
  %2 = alloca ptr, align 8
  %3 = alloca ptr, align 8
  %4 = alloca i32, align 4
  store ptr %0, ptr %2, align 8
  %5 = load ptr, ptr %2, align 8
  %6 = call i32 @Abc_NamObjNumMax(ptr noundef %5)
  %7 = sext i32 %6 to i64
  %8 = call noalias ptr @calloc(i64 noundef %7, i64 noundef 8) #15
  store ptr %8, ptr %3, align 8
  store i32 0, ptr %4, align 4
  br label %9

9:                                                ; preds = %22, %1
  %10 = load i32, ptr %4, align 4
  %11 = load ptr, ptr %2, align 8
  %12 = call i32 @Abc_NamObjNumMax(ptr noundef %11)
  %13 = icmp slt i32 %10, %12
  br i1 %13, label %14, label %25

14:                                               ; preds = %9
  %15 = load ptr, ptr %2, align 8
  %16 = load i32, ptr %4, align 4
  %17 = call ptr @Abc_NamStr(ptr noundef %15, i32 noundef %16)
  %18 = load ptr, ptr %3, align 8
  %19 = load i32, ptr %4, align 4
  %20 = sext i32 %19 to i64
  %21 = getelementptr inbounds ptr, ptr %18, i64 %20
  store ptr %17, ptr %21, align 8
  br label %22

22:                                               ; preds = %14
  %23 = load i32, ptr %4, align 4
  %24 = add nsw i32 %23, 1
  store i32 %24, ptr %4, align 4
  br label %9, !llvm.loop !35

25:                                               ; preds = %9
  %26 = load ptr, ptr %3, align 8
  ret ptr %26
}