; Function Attrs: nounwind uwtable
define noalias noundef ptr @Acb_PrepareNames(ptr noundef %0) local_unnamed_addr #0 {
  %2 = tail call i32 @Abc_NamObjNumMax(ptr noundef %0) #31
  %3 = sext i32 %2 to i64
  %4 = tail call noalias ptr @calloc(i64 noundef %3, i64 noundef 8) #33
  %5 = tail call i32 @Abc_NamObjNumMax(ptr noundef %0) #31
  %6 = icmp sgt i32 %5, 0
  br i1 %6, label %.lr.ph, label %._crit_edge

.lr.ph:                                           ; preds = %1, %.lr.ph
  %indvars.iv = phi i64 [ %indvars.iv.next, %.lr.ph ], [ 0, %1 ]
  %7 = trunc nuw nsw i64 %indvars.iv to i32
  %8 = tail call ptr @Abc_NamStr(ptr noundef %0, i32 noundef %7) #31
  %9 = getelementptr inbounds nuw ptr, ptr %4, i64 %indvars.iv
  store ptr %8, ptr %9, align 8
  %indvars.iv.next = add nuw nsw i64 %indvars.iv, 1
  %10 = tail call i32 @Abc_NamObjNumMax(ptr noundef %0) #31
  %11 = sext i32 %10 to i64
  %12 = icmp slt i64 %indvars.iv.next, %11
  br i1 %12, label %.lr.ph, label %._crit_edge, !llvm.loop !35

._crit_edge:                                      ; preds = %.lr.ph, %1
  ret ptr %4
}